; ModuleID = 'source-C-CXX/21/1088.c'
source_filename = "source-C-CXX/21/1088.c"
target datalayout = "e-m:e-p270:32:32-p271:32:32-p272:64:64-i64:64-f80:128-n8:16:32:64-S128"
target triple = "x86_64-pc-linux-gnu"

@.str = private unnamed_addr constant [5 x i8] c"%d%c\00", align 1
@.str.2 = private unnamed_addr constant [4 x i8] c"%d\0A\00", align 1
@str = private unnamed_addr constant [3 x i8] c"No\00", align 1

; Function Attrs: nofree nounwind sspstrong uwtable
define dso_local i32 @main() local_unnamed_addr #0 {
  %1 = alloca [300 x i32], align 16
  %2 = alloca i8, align 1
  %3 = bitcast [300 x i32]* %1 to i8*
  call void @llvm.lifetime.start.p0i8(i64 1200, i8* nonnull %3) #4
  call void @llvm.lifetime.start.p0i8(i64 1, i8* nonnull %2) #4
  %4 = getelementptr inbounds [300 x i32], [300 x i32]* %1, i64 0, i64 0
  %5 = call i32 (i8*, ...) @__isoc99_scanf(i8* getelementptr inbounds ([5 x i8], [5 x i8]* @.str, i64 0, i64 0), i32* nonnull %4, i8* nonnull %2)
  %6 = load i32, i32* %4, align 16, !tbaa !5
  %7 = load i8, i8* %2, align 1, !tbaa !9
  %8 = icmp eq i8 %7, 10
  br i1 %8, label %32, label %9

9:                                                ; preds = %0
  %10 = icmp sgt i32 %6, 0
  br label %11

11:                                               ; preds = %9, %11
  %12 = phi i64 [ 0, %9 ], [ %18, %11 ]
  %13 = phi i32 [ 0, %9 ], [ %27, %11 ]
  %14 = phi i1 [ %10, %9 ], [ %22, %11 ]
  %15 = phi i32 [ %6, %9 ], [ %21, %11 ]
  %16 = phi i32 [ 0, %9 ], [ %17, %11 ]
  %17 = select i1 %14, i32 %15, i32 %16
  %18 = add nuw i64 %12, 1
  %19 = getelementptr inbounds [300 x i32], [300 x i32]* %1, i64 0, i64 %18
  %20 = call i32 (i8*, ...) @__isoc99_scanf(i8* getelementptr inbounds ([5 x i8], [5 x i8]* @.str, i64 0, i64 0), i32* nonnull %19, i8* nonnull %2)
  %21 = load i32, i32* %19, align 4, !tbaa !5
  %22 = icmp sgt i32 %21, %17
  %23 = select i1 %22, i32 %17, i32 %13
  %24 = icmp sgt i32 %21, %23
  %25 = icmp slt i32 %21, %17
  %26 = select i1 %24, i1 %25, i1 false
  %27 = select i1 %26, i32 %21, i32 %23
  %28 = load i8, i8* %2, align 1, !tbaa !9
  %29 = icmp eq i8 %28, 10
  br i1 %29, label %30, label %11

30:                                               ; preds = %11
  %31 = icmp eq i32 %27, 0
  br i1 %31, label %32, label %34

32:                                               ; preds = %0, %30
  %33 = call i32 @puts(i8* nonnull dereferenceable(1) getelementptr inbounds ([3 x i8], [3 x i8]* @str, i64 0, i64 0))
  br label %36

34:                                               ; preds = %30
  %35 = call i32 (i8*, ...) @printf(i8* nonnull dereferenceable(1) getelementptr inbounds ([4 x i8], [4 x i8]* @.str.2, i64 0, i64 0), i32 %27)
  br label %36

36:                                               ; preds = %34, %32
  call void @llvm.lifetime.end.p0i8(i64 1, i8* nonnull %2) #4
  call void @llvm.lifetime.end.p0i8(i64 1200, i8* nonnull %3) #4
  ret i32 0
}

; Function Attrs: argmemonly mustprogress nofree nosync nounwind willreturn
declare void @llvm.lifetime.start.p0i8(i64 immarg, i8* nocapture) #1

; Function Attrs: nofree nounwind
declare noundef i32 @__isoc99_scanf(i8* nocapture noundef readonly, ...) local_unnamed_addr #2

; Function Attrs: nofree nounwind
declare noundef i32 @printf(i8* nocapture noundef readonly, ...) local_unnamed_addr #2

; Function Attrs: argmemonly mustprogress nofree nosync nounwind willreturn
declare void @llvm.lifetime.end.p0i8(i64 immarg, i8* nocapture) #1

; Function Attrs: nofree nounwind
declare noundef i32 @puts(i8* nocapture noundef readonly) local_unnamed_addr #3


!llvm.module.flags = !{!0, !1, !2, !3}
!llvm.ident = !{!4}

!0 = !{i32 1, !"wchar_size", i32 4}
!1 = !{i32 7, !"PIC Level", i32 2}
!2 = !{i32 7, !"PIE Level", i32 2}
!3 = !{i32 7, !"uwtable", i32 1}
!4 = !{!"clang version 13.0.0"}
!5 = !{!6, !6, i64 0}
!6 = !{!"int", !7, i64 0}
!7 = !{!"omnipotent char", !8, i64 0}
!8 = !{!"Simple C/C++ TBAA"}
!9 = !{!7, !7, i64 0}
